	.file	"lab3.c"
	.text
.Ltext0:
	.file 0 "/home/brli/Dev/csapp-f20/recitation/lab3_handout" "lab3.c"
	.section	.rodata
	.align 8
.LC0:
	.string	"You are taking this class: %d %d \n"
	.text
	.globl	fibonacci
	.type	fibonacci, @function
fibonacci:
.LFB0:
	.file 1 "lab3.c"
	.loc 1 9 1
	.cfi_startproc
	endbr64
	pushq	%rbp
	.cfi_def_cfa_offset 16
	.cfi_offset 6, -16
	movq	%rsp, %rbp
	.cfi_def_cfa_register 6
	pushq	%rbx
	subq	$40, %rsp
	.cfi_offset 3, -24
	movl	%edi, -36(%rbp)
	.loc 1 10 9
	movl	-36(%rbp), %eax
	movl	%eax, -20(%rbp)
	.loc 1 11 7
	movl	-20(%rbp), %eax
	movl	%eax, -36(%rbp)
	.loc 1 12 10
	movl	$40, -20(%rbp)
	.loc 1 14 5
	movl	$0, %eax
	call	helper_func@PLT
	movl	%eax, %ecx
	movl	-36(%rbp), %eax
	movl	%eax, %edx
	movl	%ecx, %esi
	leaq	.LC0(%rip), %rax
	movq	%rax, %rdi
	movl	$0, %eax
	call	printf@PLT
	.loc 1 16 8
	cmpl	$1, -36(%rbp)
	jg	.L2
	.loc 1 17 16
	movl	-36(%rbp), %eax
	jmp	.L3
.L2:
	.loc 1 18 12
	movl	-36(%rbp), %eax
	subl	$1, %eax
	movl	%eax, %edi
	call	fibonacci
	movl	%eax, %ebx
	.loc 1 18 31
	movl	-36(%rbp), %eax
	subl	$2, %eax
	movl	%eax, %edi
	call	fibonacci
	.loc 1 18 29
	addl	%ebx, %eax
.L3:
	.loc 1 19 1
	movq	-8(%rbp), %rbx
	leave
	.cfi_def_cfa 7, 8
	ret
	.cfi_endproc
.LFE0:
	.size	fibonacci, .-fibonacci
	.section	.rodata
.LC1:
	.string	"fib(%d) = %d\n"
	.align 8
.LC3:
	.string	"clocks ticks: %f \nTime in seconds taken by CPU: %f \n"
	.text
	.globl	main
	.type	main, @function
main:
.LFB1:
	.loc 1 22 1
	.cfi_startproc
	endbr64
	pushq	%rbp
	.cfi_def_cfa_offset 16
	.cfi_offset 6, -16
	movq	%rsp, %rbp
	.cfi_def_cfa_register 6
	subq	$32, %rsp
	.loc 1 23 21
	call	clock@PLT
	movq	%rax, -16(%rbp)
	.loc 1 24 9
	movl	$25, -24(%rbp)
	.loc 1 25 22
	movl	-24(%rbp), %eax
	movl	%eax, %edi
	call	fibonacci
	movl	%eax, -20(%rbp)
	.loc 1 26 5
	movl	-20(%rbp), %edx
	movl	-24(%rbp), %eax
	movl	%eax, %esi
	leaq	.LC1(%rip), %rax
	movq	%rax, %rdi
	movl	$0, %eax
	call	printf@PLT
	.loc 1 27 22
	movl	$2, -24(%rbp)
	.loc 1 29 13
	call	clock@PLT
	.loc 1 29 11
	subq	-16(%rbp), %rax
	movq	%rax, -16(%rbp)
	.loc 1 30 33
	pxor	%xmm0, %xmm0
	cvtsi2sdq	-16(%rbp), %xmm0
	.loc 1 30 12
	movsd	.LC2(%rip), %xmm1
	divsd	%xmm1, %xmm0
	movsd	%xmm0, -8(%rbp)
	.loc 1 32 5
	pxor	%xmm2, %xmm2
	cvtsi2sdq	-16(%rbp), %xmm2
	movq	%xmm2, %rax
	movsd	-8(%rbp), %xmm0
	movapd	%xmm0, %xmm1
	movq	%rax, %xmm0
	leaq	.LC3(%rip), %rax
	movq	%rax, %rdi
	movl	$2, %eax
	call	printf@PLT
	.loc 1 33 12
	movl	$0, %eax
	.loc 1 34 1
	leave
	.cfi_def_cfa 7, 8
	ret
	.cfi_endproc
.LFE1:
	.size	main, .-main
	.section	.rodata
	.align 8
.LC2:
	.long	0
	.long	1093567616
	.text
.Letext0:
	.file 2 "/usr/include/x86_64-linux-gnu/bits/types.h"
	.file 3 "/usr/include/x86_64-linux-gnu/bits/types/clock_t.h"
	.file 4 "/usr/include/time.h"
	.file 5 "/usr/include/stdio.h"
	.file 6 "lab3_helper.h"
	.section	.note.GNU-stack,"",@progbits
	.section	.note.gnu.property,"a"
	.align 8
	.long	1f - 0f
	.long	4f - 1f
	.long	5
0:
	.string	"GNU"
1:
	.align 8
	.long	0xc0000002
	.long	3f - 2f
2:
	.long	0x3
3:
	.align 8
4:
